; Function Attrs: mustprogress nofree nounwind willreturn memory(argmem: read) uwtable
define internal range(i32 0, 2) i32 @find_dataset(i64 %0, ptr noundef readonly captures(address_is_null) %1, ptr readnone captures(none) %2, ptr noundef readonly captures(none) %3) #11 {
  %5 = icmp eq ptr %1, null
  br i1 %5, label %9, label %6

6:                                                ; preds = %4
  %7 = tail call i32 @strcmp(ptr noundef nonnull dereferenceable(1) %1, ptr noundef nonnull dereferenceable(1) %3) #21
  %8 = icmp eq i32 %7, 0
  %spec.select = zext i1 %8 to i32
  br label %9

9:                                                ; preds = %4, %6
  %.05 = phi i32 [ %spec.select, %6 ], [ 0, %4 ]
  ret i32 %.05
}